; Function Attrs: mustprogress uwtable
define noundef range(i64 1, 0) i64 @_ZN5boost9iostreams15file_descriptor4readEPcl(ptr nocapture noundef nonnull readonly align 8 dereferenceable(16) %0, ptr nocapture noundef %1, i64 noundef %2) local_unnamed_addr #3 align 2 personality ptr @__gxx_personality_v0 {
  %4 = alloca %"class.std::ios_base::failure", align 8
  %5 = load ptr, ptr %0, align 8, !tbaa !19
  %6 = tail call ptr @__errno_location() #30
  store i32 0, ptr %6, align 4, !tbaa !9
  %7 = load i32, ptr %5, align 4, !tbaa !3
  %8 = tail call i64 @read(i32 noundef %7, ptr noundef %1, i64 noundef %2)
  %9 = load i32, ptr %6, align 4, !tbaa !9
  %.not.i = icmp eq i32 %9, 0
  br i1 %.not.i, label %_ZN5boost9iostreams6detail20file_descriptor_impl4readEPcl.exit, label %10

10:                                               ; preds = %3
  call void @llvm.lifetime.start.p0(i64 32, ptr nonnull %4) #28
  call void @_ZN5boost9iostreams6detail14system_failureB5cxx11EPKc(ptr dead_on_unwind nonnull writable sret(%"class.std::ios_base::failure") align 8 %4, ptr noundef nonnull @.str.3)
  invoke void @_ZN5boost15throw_exceptionINSt8ios_base7failureB5cxx11EEEvRKT_(ptr noundef nonnull align 8 dereferenceable(32) %4) #29
          to label %11 unwind label %12

11:                                               ; preds = %10
  unreachable

12:                                               ; preds = %10
  %13 = landingpad { ptr, i32 }
          cleanup
  call void @_ZNSt8ios_base7failureB5cxx11D1Ev(ptr noundef nonnull align 8 dereferenceable(32) %4) #28
  call void @llvm.lifetime.end.p0(i64 32, ptr nonnull %4) #28
  resume { ptr, i32 } %13

_ZN5boost9iostreams6detail20file_descriptor_impl4readEPcl.exit: ; preds = %3
  %14 = icmp eq i64 %8, 0
  %15 = select i1 %14, i64 -1, i64 %8
  ret i64 %15
}